target datalayout = "e-m:e-p270:32:32-p271:32:32-p272:64:64-i64:64-i128:128-f80:128-n8:16:32:64-S128"
target triple = "x86_64-pc-linux-gnu"

%"struct.icu_77::Norm" = type { ptr, ptr, i32, i32, i32, ptr, i8, i8, i8, i8, i8, i8, i32, i32, ptr }
%"class.icu_77::Norms" = type { %"class.icu_77::UnicodeSet", %"class.icu_77::UnicodeSet", ptr, ptr, ptr }
%"class.icu_77::UnicodeSet" = type <{ %"class.icu_77::UnicodeFilter", ptr, i32, i32, i8, [7 x i8], ptr, ptr, i32, [4 x i8], ptr, i32, [4 x i8], ptr, ptr, [25 x i32], [4 x i8] }>
%"class.icu_77::UnicodeFilter" = type { %"class.icu_77::UnicodeFunctor", %"class.icu_77::UnicodeMatcher" }
%"class.icu_77::UnicodeFunctor" = type { %"class.icu_77::UObject" }
%"class.icu_77::UObject" = type { ptr }
%"class.icu_77::UnicodeMatcher" = type { ptr }

@.str = private unnamed_addr constant [31 x i8] c"gennorm2 normalization structs\00", align 1

; Function Attrs: mustprogress uwtable
define dso_local noundef ptr @_ZN6icu_775Norms9allocNormEv(ptr noundef nonnull align 8 dereferenceable(424) %0) #0 align 2 {
  %2 = alloca ptr, align 8
  %3 = alloca ptr, align 8
  store ptr %0, ptr %2, align 8, !tbaa !38
  %4 = load ptr, ptr %2, align 8
  call void @llvm.lifetime.start.p0(i64 8, ptr %3) #11
  %5 = getelementptr inbounds nuw %"class.icu_77::Norms", ptr %4, i32 0, i32 3
  %6 = load ptr, ptr %5, align 8, !tbaa !54
  %7 = call ptr @utm_alloc(ptr noundef %6)
  store ptr %7, ptr %3, align 8, !tbaa !22
  %8 = getelementptr inbounds nuw %"class.icu_77::Norms", ptr %4, i32 0, i32 3
  %9 = load ptr, ptr %8, align 8, !tbaa !54
  %10 = call ptr @utm_getStart(ptr noundef %9)
  %11 = getelementptr inbounds nuw %"class.icu_77::Norms", ptr %4, i32 0, i32 4
  store ptr %10, ptr %11, align 8, !tbaa !55
  %12 = load ptr, ptr %3, align 8, !tbaa !22
  call void @llvm.lifetime.end.p0(i64 8, ptr %3) #11
  ret ptr %12
}

; Function Attrs: mustprogress uwtable
define dso_local void @_ZN6icu_775NormsC2ER10UErrorCode(ptr noundef nonnull align 8 dereferenceable(424) %0, ptr noundef nonnull align 4 dereferenceable(4) %1) unnamed_addr #0 align 2 personality ptr @__gxx_personality_v0 {
  %3 = alloca ptr, align 8
  %4 = alloca ptr, align 8
  %5 = alloca ptr, align 8
  %6 = alloca i32, align 4
  store ptr %0, ptr %3, align 8, !tbaa !38
  store ptr %1, ptr %4, align 8, !tbaa !40
  %7 = load ptr, ptr %3, align 8
  %8 = getelementptr inbounds nuw %"class.icu_77::Norms", ptr %7, i32 0, i32 0
  call void @_ZN6icu_7710UnicodeSetC1Ev(ptr noundef nonnull align 8 dereferenceable(200) %8)
  %9 = getelementptr inbounds nuw %"class.icu_77::Norms", ptr %7, i32 0, i32 1
  invoke void @_ZN6icu_7710UnicodeSetC1Ev(ptr noundef nonnull align 8 dereferenceable(200) %9)
          to label %10 unwind label %24

10:                                               ; preds = %2
  %11 = load ptr, ptr %4, align 8, !tbaa !40
  %12 = invoke ptr @umutablecptrie_open_77(i32 noundef 0, i32 noundef 0, ptr noundef %11)
          to label %13 unwind label %28

13:                                               ; preds = %10
  %14 = getelementptr inbounds nuw %"class.icu_77::Norms", ptr %7, i32 0, i32 2
  store ptr %12, ptr %14, align 8, !tbaa !41
  %15 = invoke ptr @utm_open(ptr noundef @.str, i32 noundef 10000, i32 noundef 1114368, i32 noundef 64)
          to label %16 unwind label %28

16:                                               ; preds = %13
  %17 = getelementptr inbounds nuw %"class.icu_77::Norms", ptr %7, i32 0, i32 3
  store ptr %15, ptr %17, align 8, !tbaa !54
  %18 = invoke noundef ptr @_ZN6icu_775Norms9allocNormEv(ptr noundef nonnull align 8 dereferenceable(424) %7)
          to label %19 unwind label %28

19:                                               ; preds = %16
  %20 = getelementptr inbounds nuw %"class.icu_77::Norms", ptr %7, i32 0, i32 4
  store ptr %18, ptr %20, align 8, !tbaa !55
  %21 = getelementptr inbounds nuw %"class.icu_77::Norms", ptr %7, i32 0, i32 4
  %22 = load ptr, ptr %21, align 8, !tbaa !55
  %23 = getelementptr inbounds nuw %"struct.icu_77::Norm", ptr %22, i32 0, i32 12
  store i32 1, ptr %23, align 8, !tbaa !56
  ret void

24:                                               ; preds = %2
  %25 = landingpad { ptr, i32 }
          cleanup
  %26 = extractvalue { ptr, i32 } %25, 0
  store ptr %26, ptr %5, align 8
  %27 = extractvalue { ptr, i32 } %25, 1
  store i32 %27, ptr %6, align 4
  br label %32

28:                                               ; preds = %16, %13, %10
  %29 = landingpad { ptr, i32 }
          cleanup
  %30 = extractvalue { ptr, i32 } %29, 0
  store ptr %30, ptr %5, align 8
  %31 = extractvalue { ptr, i32 } %29, 1
  store i32 %31, ptr %6, align 4
  call void @_ZN6icu_7710UnicodeSetD1Ev(ptr noundef nonnull align 8 dereferenceable(200) %9) #11
  br label %32

32:                                               ; preds = %28, %24
  call void @_ZN6icu_7710UnicodeSetD1Ev(ptr noundef nonnull align 8 dereferenceable(200) %8) #11
  br label %33

33:                                               ; preds = %32
  %34 = load ptr, ptr %5, align 8
  %35 = load i32, ptr %6, align 4
  %36 = insertvalue { ptr, i32 } poison, ptr %34, 0
  %37 = insertvalue { ptr, i32 } %36, i32 %35, 1
  resume { ptr, i32 } %37
}