; Function Attrs: mustprogress uwtable
define dso_local void @_ZN6icu_775NormsC2ER10UErrorCode(ptr noundef nonnull align 8 dereferenceable(424) %0, ptr noundef nonnull align 4 dereferenceable(4) %1) unnamed_addr #2 align 2 personality ptr @__gxx_personality_v0 {
  tail call void @_ZN6icu_7710UnicodeSetC1Ev(ptr noundef nonnull align 8 dereferenceable(200) %0)
  %3 = getelementptr inbounds nuw i8, ptr %0, i64 200
  invoke void @_ZN6icu_7710UnicodeSetC1Ev(ptr noundef nonnull align 8 dereferenceable(200) %3)
          to label %4 unwind label %17

4:                                                ; preds = %2
  %5 = invoke ptr @umutablecptrie_open_77(i32 noundef 0, i32 noundef 0, ptr noundef nonnull %1)
          to label %6 unwind label %19

6:                                                ; preds = %4
  %7 = getelementptr inbounds nuw i8, ptr %0, i64 400
  store ptr %5, ptr %7, align 8, !tbaa !34
  %8 = invoke ptr @utm_open(ptr noundef nonnull @.str, i32 noundef 10000, i32 noundef 1114368, i32 noundef 64)
          to label %9 unwind label %19

9:                                                ; preds = %6
  %10 = getelementptr inbounds nuw i8, ptr %0, i64 408
  store ptr %8, ptr %10, align 8, !tbaa !47
  %11 = invoke ptr @utm_alloc(ptr noundef %8)
          to label %.noexc unwind label %19

.noexc:                                           ; preds = %9
  %12 = load ptr, ptr %10, align 8, !tbaa !47
  %13 = invoke ptr @utm_getStart(ptr noundef %12)
          to label %14 unwind label %19

14:                                               ; preds = %.noexc
  %15 = getelementptr inbounds nuw i8, ptr %0, i64 416
  store ptr %11, ptr %15, align 8, !tbaa !48
  %16 = getelementptr inbounds nuw i8, ptr %11, i64 48
  store i32 1, ptr %16, align 8, !tbaa !49
  ret void

17:                                               ; preds = %2
  %18 = landingpad { ptr, i32 }
          cleanup
  br label %21

19:                                               ; preds = %.noexc, %9, %6, %4
  %20 = landingpad { ptr, i32 }
          cleanup
  tail call void @_ZN6icu_7710UnicodeSetD1Ev(ptr noundef nonnull align 8 dereferenceable(200) %3) #18
  br label %21

21:                                               ; preds = %19, %17
  %.pn = phi { ptr, i32 } [ %20, %19 ], [ %18, %17 ]
  tail call void @_ZN6icu_7710UnicodeSetD1Ev(ptr noundef nonnull align 8 dereferenceable(200) %0) #18
  resume { ptr, i32 } %.pn
}